target datalayout = "e-m:e-p270:32:32-p271:32:32-p272:64:64-i64:64-i128:128-f80:128-n8:16:32:64-S128"
target triple = "x86_64-pc-linux-gnu"

; Function Attrs: alwaysinline nounwind uwtable
define internal void @interleave_8bit(ptr noundef %0, ptr noundef %1, ptr noundef %2, i32 noundef %3, i32 noundef %4, i32 noundef %5) #4 {
  %7 = alloca ptr, align 8
  %8 = alloca ptr, align 8
  %9 = alloca ptr, align 8
  %10 = alloca i32, align 4
  %11 = alloca i32, align 4
  %12 = alloca i32, align 4
  %13 = alloca i32, align 4
  store ptr %0, ptr %7, align 8, !tbaa !48
  store ptr %1, ptr %8, align 8, !tbaa !48
  store ptr %2, ptr %9, align 8, !tbaa !48
  store i32 %3, ptr %10, align 4, !tbaa !11
  store i32 %4, ptr %11, align 4, !tbaa !11
  store i32 %5, ptr %12, align 4, !tbaa !11
  call void @llvm.lifetime.start.p0(i64 4, ptr %13) #5
  store i32 0, ptr %13, align 4, !tbaa !11
  br label %14

14:                                               ; preds = %52, %6
  %15 = load i32, ptr %13, align 4, !tbaa !11
  %16 = load i32, ptr %10, align 4, !tbaa !11
  %17 = icmp slt i32 %15, %16
  br i1 %17, label %18, label %55

18:                                               ; preds = %14
  %19 = load ptr, ptr %8, align 8, !tbaa !48
  %20 = load i32, ptr %13, align 4, !tbaa !11
  %21 = sext i32 %20 to i64
  %22 = getelementptr inbounds i16, ptr %19, i64 %21
  %23 = load i16, ptr %22, align 2, !tbaa !50
  %24 = sext i16 %23 to i32
  %25 = load i32, ptr %11, align 4, !tbaa !11
  %26 = add i32 %24, %25
  %27 = load i32, ptr %12, align 4, !tbaa !11
  %28 = ashr i32 %26, %27
  %29 = trunc i32 %28 to i16
  %30 = load ptr, ptr %7, align 8, !tbaa !48
  %31 = load i32, ptr %13, align 4, !tbaa !11
  %32 = mul nsw i32 2, %31
  %33 = sext i32 %32 to i64
  %34 = getelementptr inbounds i16, ptr %30, i64 %33
  store i16 %29, ptr %34, align 2, !tbaa !50
  %35 = load ptr, ptr %9, align 8, !tbaa !48
  %36 = load i32, ptr %13, align 4, !tbaa !11
  %37 = sext i32 %36 to i64
  %38 = getelementptr inbounds i16, ptr %35, i64 %37
  %39 = load i16, ptr %38, align 2, !tbaa !50
  %40 = sext i16 %39 to i32
  %41 = load i32, ptr %11, align 4, !tbaa !11
  %42 = add i32 %40, %41
  %43 = load i32, ptr %12, align 4, !tbaa !11
  %44 = ashr i32 %42, %43
  %45 = trunc i32 %44 to i16
  %46 = load ptr, ptr %7, align 8, !tbaa !48
  %47 = load i32, ptr %13, align 4, !tbaa !11
  %48 = mul nsw i32 2, %47
  %49 = add nsw i32 %48, 1
  %50 = sext i32 %49 to i64
  %51 = getelementptr inbounds i16, ptr %46, i64 %50
  store i16 %45, ptr %51, align 2, !tbaa !50
  br label %52

52:                                               ; preds = %18
  %53 = load i32, ptr %13, align 4, !tbaa !11
  %54 = add nsw i32 %53, 1
  store i32 %54, ptr %13, align 4, !tbaa !11
  br label %14, !llvm.loop !87

55:                                               ; preds = %14
  call void @llvm.lifetime.end.p0(i64 4, ptr %13) #5
  ret void
}

; Function Attrs: alwaysinline nounwind willreturn memory(none) uwtable
define internal i32 @av_clip_c(i32 noundef %0, i32 noundef %1, i32 noundef %2) #3 {
  %4 = alloca i32, align 4
  %5 = alloca i32, align 4
  %6 = alloca i32, align 4
  %7 = alloca i32, align 4
  store i32 %0, ptr %5, align 4, !tbaa !11
  store i32 %1, ptr %6, align 4, !tbaa !11
  store i32 %2, ptr %7, align 4, !tbaa !11
  %8 = load i32, ptr %5, align 4, !tbaa !11
  %9 = load i32, ptr %6, align 4, !tbaa !11
  %10 = icmp slt i32 %8, %9
  br i1 %10, label %11, label %13

11:                                               ; preds = %3
  %12 = load i32, ptr %6, align 4, !tbaa !11
  store i32 %12, ptr %4, align 4
  br label %21

13:                                               ; preds = %3
  %14 = load i32, ptr %5, align 4, !tbaa !11
  %15 = load i32, ptr %7, align 4, !tbaa !11
  %16 = icmp sgt i32 %14, %15
  br i1 %16, label %17, label %19

17:                                               ; preds = %13
  %18 = load i32, ptr %7, align 4, !tbaa !11
  store i32 %18, ptr %4, align 4
  br label %21

19:                                               ; preds = %13
  %20 = load i32, ptr %5, align 4, !tbaa !11
  store i32 %20, ptr %4, align 4
  br label %21

21:                                               ; preds = %19, %17, %11
  %22 = load i32, ptr %4, align 4
  ret i32 %22
}

; Function Attrs: nounwind uwtable
define internal void @horizontal_compose_fidelityi_8bit(ptr noundef %0, ptr noundef %1, i32 noundef %2) #0 {
  %4 = alloca ptr, align 8
  %5 = alloca ptr, align 8
  %6 = alloca i32, align 4
  %7 = alloca i32, align 4
  %8 = alloca i32, align 4
  %9 = alloca i32, align 4
  %10 = alloca [8 x i16], align 16
  %11 = alloca ptr, align 8
  %12 = alloca ptr, align 8
  store ptr %0, ptr %4, align 8, !tbaa !44
  store ptr %1, ptr %5, align 8, !tbaa !44
  store i32 %2, ptr %6, align 4, !tbaa !11
  call void @llvm.lifetime.start.p0(i64 4, ptr %7) #5
  %13 = load i32, ptr %6, align 4, !tbaa !11
  %14 = ashr i32 %13, 1
  store i32 %14, ptr %7, align 4, !tbaa !11
  call void @llvm.lifetime.start.p0(i64 4, ptr %8) #5
  call void @llvm.lifetime.start.p0(i64 4, ptr %9) #5
  call void @llvm.lifetime.start.p0(i64 16, ptr %10) #5
  call void @llvm.lifetime.start.p0(i64 8, ptr %11) #5
  %15 = load ptr, ptr %4, align 8, !tbaa !44
  store ptr %15, ptr %11, align 8, !tbaa !48
  call void @llvm.lifetime.start.p0(i64 8, ptr %12) #5
  %16 = load ptr, ptr %5, align 8, !tbaa !44
  store ptr %16, ptr %12, align 8, !tbaa !48
  store i32 0, ptr %9, align 4, !tbaa !11
  br label %17

17:                                               ; preds = %95, %3
  %18 = load i32, ptr %9, align 4, !tbaa !11
  %19 = load i32, ptr %7, align 4, !tbaa !11
  %20 = icmp slt i32 %18, %19
  br i1 %20, label %21, label %98

21:                                               ; preds = %17
  store i32 0, ptr %8, align 4, !tbaa !11
  br label %22

22:                                               ; preds = %40, %21
  %23 = load i32, ptr %8, align 4, !tbaa !11
  %24 = icmp slt i32 %23, 8
  br i1 %24, label %25, label %43

25:                                               ; preds = %22
  %26 = load ptr, ptr %11, align 8, !tbaa !48
  %27 = load i32, ptr %9, align 4, !tbaa !11
  %28 = sub nsw i32 %27, 3
  %29 = load i32, ptr %8, align 4, !tbaa !11
  %30 = add nsw i32 %28, %29
  %31 = load i32, ptr %7, align 4, !tbaa !11
  %32 = sub nsw i32 %31, 1
  %33 = call i32 @av_clip_c(i32 noundef %30, i32 noundef 0, i32 noundef %32) #6
  %34 = sext i32 %33 to i64
  %35 = getelementptr inbounds i16, ptr %26, i64 %34
  %36 = load i16, ptr %35, align 2, !tbaa !50
  %37 = load i32, ptr %8, align 4, !tbaa !11
  %38 = sext i32 %37 to i64
  %39 = getelementptr inbounds [8 x i16], ptr %10, i64 0, i64 %38
  store i16 %36, ptr %39, align 2, !tbaa !50
  br label %40

40:                                               ; preds = %25
  %41 = load i32, ptr %8, align 4, !tbaa !11
  %42 = add nsw i32 %41, 1
  store i32 %42, ptr %8, align 4, !tbaa !11
  br label %22, !llvm.loop !74

43:                                               ; preds = %22
  %44 = load ptr, ptr %11, align 8, !tbaa !48
  %45 = load i32, ptr %9, align 4, !tbaa !11
  %46 = load i32, ptr %7, align 4, !tbaa !11
  %47 = add nsw i32 %45, %46
  %48 = sext i32 %47 to i64
  %49 = getelementptr inbounds i16, ptr %44, i64 %48
  %50 = load i16, ptr %49, align 2, !tbaa !50
  %51 = sext i16 %50 to i32
  %52 = getelementptr inbounds [8 x i16], ptr %10, i64 0, i64 0
  %53 = load i16, ptr %52, align 16, !tbaa !50
  %54 = sext i16 %53 to i32
  %55 = getelementptr inbounds [8 x i16], ptr %10, i64 0, i64 7
  %56 = load i16, ptr %55, align 2, !tbaa !50
  %57 = sext i16 %56 to i32
  %58 = add i32 %54, %57
  %59 = mul i32 -2, %58
  %60 = getelementptr inbounds [8 x i16], ptr %10, i64 0, i64 1
  %61 = load i16, ptr %60, align 2, !tbaa !50
  %62 = sext i16 %61 to i32
  %63 = getelementptr inbounds [8 x i16], ptr %10, i64 0, i64 6
  %64 = load i16, ptr %63, align 4, !tbaa !50
  %65 = sext i16 %64 to i32
  %66 = add i32 %62, %65
  %67 = mul i32 10, %66
  %68 = add i32 %59, %67
  %69 = getelementptr inbounds [8 x i16], ptr %10, i64 0, i64 2
  %70 = load i16, ptr %69, align 4, !tbaa !50
  %71 = sext i16 %70 to i32
  %72 = getelementptr inbounds [8 x i16], ptr %10, i64 0, i64 5
  %73 = load i16, ptr %72, align 2, !tbaa !50
  %74 = sext i16 %73 to i32
  %75 = add i32 %71, %74
  %76 = mul i32 25, %75
  %77 = sub i32 %68, %76
  %78 = getelementptr inbounds [8 x i16], ptr %10, i64 0, i64 3
  %79 = load i16, ptr %78, align 2, !tbaa !50
  %80 = sext i16 %79 to i32
  %81 = getelementptr inbounds [8 x i16], ptr %10, i64 0, i64 4
  %82 = load i16, ptr %81, align 8, !tbaa !50
  %83 = sext i16 %82 to i32
  %84 = add i32 %80, %83
  %85 = mul i32 81, %84
  %86 = add i32 %77, %85
  %87 = add i32 %86, 128
  %88 = ashr i32 %87, 8
  %89 = add i32 %51, %88
  %90 = trunc i32 %89 to i16
  %91 = load ptr, ptr %12, align 8, !tbaa !48
  %92 = load i32, ptr %9, align 4, !tbaa !11
  %93 = sext i32 %92 to i64
  %94 = getelementptr inbounds i16, ptr %91, i64 %93
  store i16 %90, ptr %94, align 2, !tbaa !50
  br label %95

95:                                               ; preds = %43
  %96 = load i32, ptr %9, align 4, !tbaa !11
  %97 = add nsw i32 %96, 1
  store i32 %97, ptr %9, align 4, !tbaa !11
  br label %17, !llvm.loop !75

98:                                               ; preds = %17
  store i32 0, ptr %9, align 4, !tbaa !11
  br label %99

99:                                               ; preds = %177, %98
  %100 = load i32, ptr %9, align 4, !tbaa !11
  %101 = load i32, ptr %7, align 4, !tbaa !11
  %102 = icmp slt i32 %100, %101
  br i1 %102, label %103, label %180

103:                                              ; preds = %99
  store i32 0, ptr %8, align 4, !tbaa !11
  br label %104

104:                                              ; preds = %122, %103
  %105 = load i32, ptr %8, align 4, !tbaa !11
  %106 = icmp slt i32 %105, 8
  br i1 %106, label %107, label %125

107:                                              ; preds = %104
  %108 = load ptr, ptr %12, align 8, !tbaa !48
  %109 = load i32, ptr %9, align 4, !tbaa !11
  %110 = sub nsw i32 %109, 4
  %111 = load i32, ptr %8, align 4, !tbaa !11
  %112 = add nsw i32 %110, %111
  %113 = load i32, ptr %7, align 4, !tbaa !11
  %114 = sub nsw i32 %113, 1
  %115 = call i32 @av_clip_c(i32 noundef %112, i32 noundef 0, i32 noundef %114) #6
  %116 = sext i32 %115 to i64
  %117 = getelementptr inbounds i16, ptr %108, i64 %116
  %118 = load i16, ptr %117, align 2, !tbaa !50
  %119 = load i32, ptr %8, align 4, !tbaa !11
  %120 = sext i32 %119 to i64
  %121 = getelementptr inbounds [8 x i16], ptr %10, i64 0, i64 %120
  store i16 %118, ptr %121, align 2, !tbaa !50
  br label %122

122:                                              ; preds = %107
  %123 = load i32, ptr %8, align 4, !tbaa !11
  %124 = add nsw i32 %123, 1
  store i32 %124, ptr %8, align 4, !tbaa !11
  br label %104, !llvm.loop !76

125:                                              ; preds = %104
  %126 = load ptr, ptr %11, align 8, !tbaa !48
  %127 = load i32, ptr %9, align 4, !tbaa !11
  %128 = sext i32 %127 to i64
  %129 = getelementptr inbounds i16, ptr %126, i64 %128
  %130 = load i16, ptr %129, align 2, !tbaa !50
  %131 = sext i16 %130 to i32
  %132 = getelementptr inbounds [8 x i16], ptr %10, i64 0, i64 0
  %133 = load i16, ptr %132, align 16, !tbaa !50
  %134 = sext i16 %133 to i32
  %135 = getelementptr inbounds [8 x i16], ptr %10, i64 0, i64 7
  %136 = load i16, ptr %135, align 2, !tbaa !50
  %137 = sext i16 %136 to i32
  %138 = add i32 %134, %137
  %139 = mul i32 -8, %138
  %140 = getelementptr inbounds [8 x i16], ptr %10, i64 0, i64 1
  %141 = load i16, ptr %140, align 2, !tbaa !50
  %142 = sext i16 %141 to i32
  %143 = getelementptr inbounds [8 x i16], ptr %10, i64 0, i64 6
  %144 = load i16, ptr %143, align 4, !tbaa !50
  %145 = sext i16 %144 to i32
  %146 = add i32 %142, %145
  %147 = mul i32 21, %146
  %148 = add i32 %139, %147
  %149 = getelementptr inbounds [8 x i16], ptr %10, i64 0, i64 2
  %150 = load i16, ptr %149, align 4, !tbaa !50
  %151 = sext i16 %150 to i32
  %152 = getelementptr inbounds [8 x i16], ptr %10, i64 0, i64 5
  %153 = load i16, ptr %152, align 2, !tbaa !50
  %154 = sext i16 %153 to i32
  %155 = add i32 %151, %154
  %156 = mul i32 46, %155
  %157 = sub i32 %148, %156
  %158 = getelementptr inbounds [8 x i16], ptr %10, i64 0, i64 3
  %159 = load i16, ptr %158, align 2, !tbaa !50
  %160 = sext i16 %159 to i32
  %161 = getelementptr inbounds [8 x i16], ptr %10, i64 0, i64 4
  %162 = load i16, ptr %161, align 8, !tbaa !50
  %163 = sext i16 %162 to i32
  %164 = add i32 %160, %163
  %165 = mul i32 161, %164
  %166 = add i32 %157, %165
  %167 = add i32 %166, 128
  %168 = ashr i32 %167, 8
  %169 = sub i32 %131, %168
  %170 = trunc i32 %169 to i16
  %171 = load ptr, ptr %12, align 8, !tbaa !48
  %172 = load i32, ptr %9, align 4, !tbaa !11
  %173 = load i32, ptr %7, align 4, !tbaa !11
  %174 = add nsw i32 %172, %173
  %175 = sext i32 %174 to i64
  %176 = getelementptr inbounds i16, ptr %171, i64 %175
  store i16 %170, ptr %176, align 2, !tbaa !50
  br label %177

177:                                              ; preds = %125
  %178 = load i32, ptr %9, align 4, !tbaa !11
  %179 = add nsw i32 %178, 1
  store i32 %179, ptr %9, align 4, !tbaa !11
  br label %99, !llvm.loop !77

180:                                              ; preds = %99
  %181 = load ptr, ptr %11, align 8, !tbaa !48
  %182 = load ptr, ptr %12, align 8, !tbaa !48
  %183 = load i32, ptr %7, align 4, !tbaa !11
  %184 = sext i32 %183 to i64
  %185 = getelementptr inbounds i16, ptr %182, i64 %184
  %186 = load ptr, ptr %12, align 8, !tbaa !48
  %187 = load i32, ptr %7, align 4, !tbaa !11
  call void @interleave_8bit(ptr noundef %181, ptr noundef %185, ptr noundef %186, i32 noundef %187, i32 noundef 0, i32 noundef 0)
  call void @llvm.lifetime.end.p0(i64 8, ptr %12) #5
  call void @llvm.lifetime.end.p0(i64 8, ptr %11) #5
  call void @llvm.lifetime.end.p0(i64 16, ptr %10) #5
  call void @llvm.lifetime.end.p0(i64 4, ptr %9) #5
  call void @llvm.lifetime.end.p0(i64 4, ptr %8) #5
  call void @llvm.lifetime.end.p0(i64 4, ptr %7) #5
  ret void
}