; Function Attrs: nofree norecurse nosync nounwind memory(argmem: readwrite) uwtable
define internal void @horizontal_compose_fidelityi_8bit(ptr noundef captures(none) %0, ptr noundef captures(none) %1, i32 noundef %2) #3 {
  %4 = alloca [8 x i16], align 16
  %5 = ashr i32 %2, 1
  call void @llvm.lifetime.start.p0(i64 16, ptr nonnull %4) #6
  %6 = icmp sgt i32 %5, 0
  br i1 %6, label %.preheader48.lr.ph, label %interleave_8bit.exit

.preheader48.lr.ph:                               ; preds = %3
  %7 = add nsw i32 %5, -1
  %8 = getelementptr inbounds nuw i8, ptr %4, i64 14
  %9 = getelementptr inbounds nuw i8, ptr %4, i64 2
  %10 = getelementptr inbounds nuw i8, ptr %4, i64 12
  %11 = getelementptr inbounds nuw i8, ptr %4, i64 4
  %12 = getelementptr inbounds nuw i8, ptr %4, i64 10
  %13 = getelementptr inbounds nuw i8, ptr %4, i64 6
  %14 = getelementptr inbounds nuw i8, ptr %4, i64 8
  %15 = zext nneg i32 %5 to i64
  %wide.trip.count = zext nneg i32 %5 to i64
  %invariant.gep = getelementptr inbounds nuw i16, ptr %0, i64 %15
  br label %.preheader48

.preheader48:                                     ; preds = %.preheader48.lr.ph, %35
  %indvars.iv59 = phi i64 [ 0, %.preheader48.lr.ph ], [ %indvars.iv.next60, %35 ]
  %16 = add nsw i64 %indvars.iv59, -3
  br label %26

.preheader.lr.ph:                                 ; preds = %35
  %17 = add nsw i32 %5, -1
  %18 = getelementptr inbounds nuw i8, ptr %4, i64 14
  %19 = getelementptr inbounds nuw i8, ptr %4, i64 2
  %20 = getelementptr inbounds nuw i8, ptr %4, i64 12
  %21 = getelementptr inbounds nuw i8, ptr %4, i64 4
  %22 = getelementptr inbounds nuw i8, ptr %4, i64 10
  %23 = getelementptr inbounds nuw i8, ptr %4, i64 6
  %24 = getelementptr inbounds nuw i8, ptr %4, i64 8
  %25 = zext nneg i32 %5 to i64
  %wide.trip.count70 = zext nneg i32 %5 to i64
  %invariant.gep78 = getelementptr inbounds nuw i16, ptr %1, i64 %25
  br label %.preheader

26:                                               ; preds = %.preheader48, %26
  %indvars.iv = phi i64 [ 0, %.preheader48 ], [ %indvars.iv.next, %26 ]
  %27 = add nsw i64 %16, %indvars.iv
  %28 = icmp slt i64 %27, 0
  %29 = trunc nsw i64 %27 to i32
  %..i = tail call i32 @llvm.smin.i32(i32 %29, i32 %7)
  %30 = sext i32 %..i to i64
  %31 = select i1 %28, i64 0, i64 %30
  %32 = getelementptr inbounds i16, ptr %0, i64 %31
  %33 = load i16, ptr %32, align 2, !tbaa !39
  %34 = getelementptr inbounds nuw [8 x i16], ptr %4, i64 0, i64 %indvars.iv
  store i16 %33, ptr %34, align 2, !tbaa !39
  %indvars.iv.next = add nuw nsw i64 %indvars.iv, 1
  %exitcond.not = icmp eq i64 %indvars.iv.next, 8
  br i1 %exitcond.not, label %35, label %26, !llvm.loop !60

35:                                               ; preds = %26
  %gep = getelementptr inbounds nuw i16, ptr %invariant.gep, i64 %indvars.iv59
  %36 = load i16, ptr %gep, align 2, !tbaa !39
  %37 = load i16, ptr %4, align 16, !tbaa !39
  %38 = sext i16 %37 to i32
  %39 = load i16, ptr %8, align 2, !tbaa !39
  %40 = sext i16 %39 to i32
  %41 = add nsw i32 %40, %38
  %42 = load i16, ptr %9, align 2, !tbaa !39
  %43 = sext i16 %42 to i32
  %44 = load i16, ptr %10, align 4, !tbaa !39
  %45 = sext i16 %44 to i32
  %46 = add nsw i32 %45, %43
  %47 = mul nsw i32 %46, 10
  %48 = load i16, ptr %11, align 4, !tbaa !39
  %49 = sext i16 %48 to i32
  %50 = load i16, ptr %12, align 2, !tbaa !39
  %51 = sext i16 %50 to i32
  %52 = add nsw i32 %51, %49
  %.neg41 = mul i32 %52, 16777191
  %53 = load i16, ptr %13, align 2, !tbaa !39
  %54 = sext i16 %53 to i32
  %55 = load i16, ptr %14, align 8, !tbaa !39
  %56 = sext i16 %55 to i32
  %57 = add nsw i32 %56, %54
  %58 = mul nsw i32 %57, 81
  %59 = shl nsw i32 %41, 1
  %reass.sub = sub nsw i32 %47, %59
  %60 = add nsw i32 %reass.sub, 128
  %61 = add i32 %60, %.neg41
  %62 = add i32 %61, %58
  %63 = lshr i32 %62, 8
  %64 = trunc i32 %63 to i16
  %65 = add i16 %36, %64
  %66 = getelementptr inbounds nuw i16, ptr %1, i64 %indvars.iv59
  store i16 %65, ptr %66, align 2, !tbaa !39
  %indvars.iv.next60 = add nuw nsw i64 %indvars.iv59, 1
  %exitcond62.not = icmp eq i64 %indvars.iv.next60, %wide.trip.count
  br i1 %exitcond62.not, label %.preheader.lr.ph, label %.preheader48, !llvm.loop !61

.preheader:                                       ; preds = %.preheader.lr.ph, %77
  %indvars.iv67 = phi i64 [ 0, %.preheader.lr.ph ], [ %indvars.iv.next68, %77 ]
  %67 = add nsw i64 %indvars.iv67, -4
  br label %68

68:                                               ; preds = %.preheader, %68
  %indvars.iv63 = phi i64 [ 0, %.preheader ], [ %indvars.iv.next64, %68 ]
  %69 = add nsw i64 %67, %indvars.iv63
  %70 = icmp slt i64 %69, 0
  %71 = trunc nsw i64 %69 to i32
  %..i42 = tail call i32 @llvm.smin.i32(i32 %71, i32 %17)
  %72 = sext i32 %..i42 to i64
  %73 = select i1 %70, i64 0, i64 %72
  %74 = getelementptr inbounds i16, ptr %1, i64 %73
  %75 = load i16, ptr %74, align 2, !tbaa !39
  %76 = getelementptr inbounds nuw [8 x i16], ptr %4, i64 0, i64 %indvars.iv63
  store i16 %75, ptr %76, align 2, !tbaa !39
  %indvars.iv.next64 = add nuw nsw i64 %indvars.iv63, 1
  %exitcond66.not = icmp eq i64 %indvars.iv.next64, 8
  br i1 %exitcond66.not, label %77, label %68, !llvm.loop !62

77:                                               ; preds = %68
  %78 = getelementptr inbounds nuw i16, ptr %0, i64 %indvars.iv67
  %79 = load i16, ptr %78, align 2, !tbaa !39
  %80 = load i16, ptr %4, align 16, !tbaa !39
  %81 = sext i16 %80 to i32
  %82 = load i16, ptr %18, align 2, !tbaa !39
  %83 = sext i16 %82 to i32
  %84 = add nsw i32 %83, %81
  %85 = load i16, ptr %19, align 2, !tbaa !39
  %86 = sext i16 %85 to i32
  %87 = load i16, ptr %20, align 4, !tbaa !39
  %88 = sext i16 %87 to i32
  %89 = add nsw i32 %88, %86
  %90 = mul nsw i32 %89, 21
  %91 = load i16, ptr %21, align 4, !tbaa !39
  %92 = sext i16 %91 to i32
  %93 = load i16, ptr %22, align 2, !tbaa !39
  %94 = sext i16 %93 to i32
  %95 = add nsw i32 %94, %92
  %.neg = mul i32 %95, 16777170
  %96 = load i16, ptr %23, align 2, !tbaa !39
  %97 = sext i16 %96 to i32
  %98 = load i16, ptr %24, align 8, !tbaa !39
  %99 = sext i16 %98 to i32
  %100 = add nsw i32 %99, %97
  %101 = mul nsw i32 %100, 161
  %102 = shl nsw i32 %84, 3
  %reass.sub57 = sub nsw i32 %90, %102
  %103 = add nsw i32 %reass.sub57, 128
  %104 = add i32 %103, %.neg
  %105 = add i32 %104, %101
  %106 = lshr i32 %105, 8
  %107 = trunc i32 %106 to i16
  %108 = sub i16 %79, %107
  %gep79 = getelementptr inbounds nuw i16, ptr %invariant.gep78, i64 %indvars.iv67
  store i16 %108, ptr %gep79, align 2, !tbaa !39
  %indvars.iv.next68 = add nuw nsw i64 %indvars.iv67, 1
  %exitcond71.not = icmp eq i64 %indvars.iv.next68, %wide.trip.count70
  br i1 %exitcond71.not, label %._crit_edge, label %.preheader, !llvm.loop !63

._crit_edge:                                      ; preds = %77
  %109 = getelementptr inbounds nuw i16, ptr %1, i64 %25
  %wide.trip.count75 = zext nneg i32 %5 to i64
  br label %.lr.ph

.lr.ph:                                           ; preds = %._crit_edge, %.lr.ph
  %indvars.iv72 = phi i64 [ 0, %._crit_edge ], [ %indvars.iv.next73, %.lr.ph ]
  %110 = getelementptr inbounds nuw i16, ptr %109, i64 %indvars.iv72
  %111 = load i16, ptr %110, align 2, !tbaa !39
  %.idx = shl nuw nsw i64 %indvars.iv72, 2
  %112 = getelementptr inbounds nuw i8, ptr %0, i64 %.idx
  store i16 %111, ptr %112, align 2, !tbaa !39
  %113 = getelementptr inbounds nuw i16, ptr %1, i64 %indvars.iv72
  %114 = load i16, ptr %113, align 2, !tbaa !39
  %115 = getelementptr inbounds nuw i8, ptr %112, i64 2
  store i16 %114, ptr %115, align 2, !tbaa !39
  %indvars.iv.next73 = add nuw nsw i64 %indvars.iv72, 1
  %exitcond76.not = icmp eq i64 %indvars.iv.next73, %wide.trip.count75
  br i1 %exitcond76.not, label %interleave_8bit.exit, label %.lr.ph, !llvm.loop !47

interleave_8bit.exit:                             ; preds = %.lr.ph, %3
  call void @llvm.lifetime.end.p0(i64 16, ptr nonnull %4) #6
  ret void
}